; Function Attrs: nounwind uwtable
define void @b2Body_ApplyMassFromShapes(i64 %0) local_unnamed_addr #0 {
  %.sroa.2.0.extract.shift = lshr i64 %0, 32
  %2 = trunc nuw i64 %.sroa.2.0.extract.shift to i32
  %3 = and i32 %2, 65535
  %4 = tail call ptr @b2GetWorldLocked(i32 noundef %3) #10
  %5 = icmp eq ptr %4, null
  br i1 %5, label %11, label %6

6:                                                ; preds = %1
  %7 = getelementptr inbounds nuw i8, ptr %4, i64 1032
  %.val.i = load ptr, ptr %7, align 8, !tbaa !10
  %8 = shl i64 %0, 32
  %sext.i = add i64 %8, -4294967296
  %9 = ashr exact i64 %sext.i, 25
  %10 = getelementptr inbounds i8, ptr %.val.i, i64 %9
  tail call void @b2UpdateBodyMassData(ptr noundef nonnull %4, ptr noundef %10)
  br label %11

11:                                               ; preds = %1, %6
  ret void
}